target datalayout = "e-m:e-p270:32:32-p271:32:32-p272:64:64-i64:64-i128:128-f80:128-n8:16:32:64-S128"
target triple = "x86_64-pc-linux-gnu"

%"class.pxrInternal_v0_24__pxrReserved__::GfMatrix2d" = type { %"class.pxrInternal_v0_24__pxrReserved__::GfMatrixData" }
%"class.pxrInternal_v0_24__pxrReserved__::GfMatrixData" = type { [4 x double] }

; Function Attrs: mustprogress nounwind uwtable
define linkonce_odr noundef ptr @_ZNK32pxrInternal_v0_24__pxrReserved__12GfMatrixDataIdLi2ELi2EEixEi(ptr noundef nonnull align 8 dereferenceable(32) %0, i32 noundef %1) #2 comdat align 2 {
  %3 = alloca ptr, align 8
  %4 = alloca i32, align 4
  store ptr %0, ptr %3, align 8
  store i32 %1, ptr %4, align 4
  %5 = load ptr, ptr %3, align 8
  %6 = getelementptr inbounds nuw %"class.pxrInternal_v0_24__pxrReserved__::GfMatrixData", ptr %5, i32 0, i32 0
  %7 = getelementptr inbounds [4 x double], ptr %6, i64 0, i64 0
  %8 = load i32, ptr %4, align 4
  %9 = mul nsw i32 %8, 2
  %10 = sext i32 %9 to i64
  %11 = getelementptr inbounds double, ptr %7, i64 %10
  ret ptr %11
}

; Function Attrs: mustprogress nounwind uwtable
define linkonce_odr noundef zeroext i1 @_ZN32pxrInternal_v0_24__pxrReserved__9GfIsCloseEddd(double noundef %0, double noundef %1, double noundef %2) #2 comdat {
  %4 = alloca double, align 8
  %5 = alloca double, align 8
  %6 = alloca double, align 8
  store double %0, ptr %4, align 8
  store double %1, ptr %5, align 8
  store double %2, ptr %6, align 8
  %7 = load double, ptr %4, align 8
  %8 = load double, ptr %5, align 8
  %9 = fsub double %7, %8
  %10 = call double @llvm.fabs.f64(double %9)
  %11 = load double, ptr %6, align 8
  %12 = fcmp olt double %10, %11
  ret i1 %12
}

; Function Attrs: mustprogress uwtable
define linkonce_odr noundef ptr @_ZNK32pxrInternal_v0_24__pxrReserved__10GfMatrix2dixEi(ptr noundef nonnull align 8 dereferenceable(32) %0, i32 noundef %1) #0 comdat align 2 {
  %3 = alloca ptr, align 8
  %4 = alloca i32, align 4
  store ptr %0, ptr %3, align 8
  store i32 %1, ptr %4, align 4
  %5 = load ptr, ptr %3, align 8
  %6 = getelementptr inbounds nuw %"class.pxrInternal_v0_24__pxrReserved__::GfMatrix2d", ptr %5, i32 0, i32 0
  %7 = load i32, ptr %4, align 4
  %8 = call noundef ptr @_ZNK32pxrInternal_v0_24__pxrReserved__12GfMatrixDataIdLi2ELi2EEixEi(ptr noundef nonnull align 8 dereferenceable(32) %6, i32 noundef %7)
  ret ptr %8
}

; Function Attrs: mustprogress uwtable
define noundef zeroext i1 @_ZN32pxrInternal_v0_24__pxrReserved__9GfIsCloseERKNS_10GfMatrix2dES2_d(ptr noundef nonnull align 8 dereferenceable(32) %0, ptr noundef nonnull align 8 dereferenceable(32) %1, double noundef %2) #0 {
  %4 = alloca i1, align 1
  %5 = alloca ptr, align 8
  %6 = alloca ptr, align 8
  %7 = alloca double, align 8
  %8 = alloca i64, align 8
  %9 = alloca i64, align 8
  store ptr %0, ptr %5, align 8
  store ptr %1, ptr %6, align 8
  store double %2, ptr %7, align 8
  store i64 0, ptr %8, align 8
  br label %10

10:                                               ; preds = %40, %3
  %11 = load i64, ptr %8, align 8
  %12 = icmp ult i64 %11, 2
  br i1 %12, label %13, label %43

13:                                               ; preds = %10
  store i64 0, ptr %9, align 8
  br label %14

14:                                               ; preds = %36, %13
  %15 = load i64, ptr %9, align 8
  %16 = icmp ult i64 %15, 2
  br i1 %16, label %17, label %39

17:                                               ; preds = %14
  %18 = load ptr, ptr %5, align 8
  %19 = load i64, ptr %8, align 8
  %20 = trunc i64 %19 to i32
  %21 = call noundef ptr @_ZNK32pxrInternal_v0_24__pxrReserved__10GfMatrix2dixEi(ptr noundef nonnull align 8 dereferenceable(32) %18, i32 noundef %20)
  %22 = load i64, ptr %9, align 8
  %23 = getelementptr inbounds double, ptr %21, i64 %22
  %24 = load double, ptr %23, align 8
  %25 = load ptr, ptr %6, align 8
  %26 = load i64, ptr %8, align 8
  %27 = trunc i64 %26 to i32
  %28 = call noundef ptr @_ZNK32pxrInternal_v0_24__pxrReserved__10GfMatrix2dixEi(ptr noundef nonnull align 8 dereferenceable(32) %25, i32 noundef %27)
  %29 = load i64, ptr %9, align 8
  %30 = getelementptr inbounds double, ptr %28, i64 %29
  %31 = load double, ptr %30, align 8
  %32 = load double, ptr %7, align 8
  %33 = call noundef zeroext i1 @_ZN32pxrInternal_v0_24__pxrReserved__9GfIsCloseEddd(double noundef %24, double noundef %31, double noundef %32)
  br i1 %33, label %35, label %34

34:                                               ; preds = %17
  store i1 false, ptr %4, align 1
  br label %44

35:                                               ; preds = %17
  br label %36

36:                                               ; preds = %35
  %37 = load i64, ptr %9, align 8
  %38 = add i64 %37, 1
  store i64 %38, ptr %9, align 8
  br label %14, !llvm.loop !9

39:                                               ; preds = %14
  br label %40

40:                                               ; preds = %39
  %41 = load i64, ptr %8, align 8
  %42 = add i64 %41, 1
  store i64 %42, ptr %8, align 8
  br label %10, !llvm.loop !10

43:                                               ; preds = %10
  store i1 true, ptr %4, align 1
  br label %44

44:                                               ; preds = %43, %34
  %45 = load i1, ptr %4, align 1
  ret i1 %45
}