; Function Attrs: mustprogress nofree norecurse nosync nounwind willreturn memory(argmem: read) uwtable
define noundef zeroext i1 @_ZN32pxrInternal_v0_24__pxrReserved__9GfIsCloseERKNS_10GfMatrix2dES2_d(ptr noundef nonnull readonly align 8 captures(none) dereferenceable(32) %0, ptr noundef nonnull readonly align 8 captures(none) dereferenceable(32) %1, double noundef %2) local_unnamed_addr #6 {
  br label %.preheader

.preheader:                                       ; preds = %3, %16
  %.not = phi i1 [ true, %3 ], [ false, %16 ]
  %.01116 = phi i64 [ 0, %3 ], [ 2, %16 ]
  %4 = getelementptr inbounds nuw double, ptr %0, i64 %.01116
  %5 = getelementptr inbounds nuw double, ptr %1, i64 %.01116
  br label %7

6:                                                ; preds = %7
  br i1 %8, label %7, label %16, !llvm.loop !9

7:                                                ; preds = %.preheader, %6
  %8 = phi i1 [ true, %.preheader ], [ false, %6 ]
  %.015 = phi i64 [ 0, %.preheader ], [ 1, %6 ]
  %9 = getelementptr inbounds nuw double, ptr %4, i64 %.015
  %10 = load double, ptr %9, align 8
  %11 = getelementptr inbounds nuw double, ptr %5, i64 %.015
  %12 = load double, ptr %11, align 8
  %13 = fsub double %10, %12
  %14 = tail call double @llvm.fabs.f64(double %13)
  %15 = fcmp olt double %14, %2
  br i1 %15, label %6, label %.loopexit

16:                                               ; preds = %6
  br i1 %.not, label %.preheader, label %.loopexit, !llvm.loop !10

.loopexit:                                        ; preds = %16, %7
  ret i1 %15
}